Certificate:
    Data:
        Version: 3 (0x2)
        Serial Number: 1 (0x1)
        Signature Algorithm: sha1WithRSAEncryption
        Issuer: C=SE, ST=Skane, L=Lund, O=Initech, OU=IT-dep, CN=Bill Lumbergh/emailAddress=bill@initech.com
        Validity
            Not Before: Jan 25 15:13:33 2012 GMT
            Not After : Jan 24 15:13:33 2013 GMT
        Subject: C=SE, ST=Skane, L=Lund, O=SuperComapny, OU=IT-dep, CN=supercompany.com/emailAddress=info@supercompany.com
        Subject Public Key Info:
            Public Key Algorithm: rsaEncryption
                Public-Key: (2048 bit)
                Modulus:
                    00:db:07:76:8f:24:cd:7a:a6:4e:0a:00:69:64:8e:
                    ef:23:14:44:99:4e:81:e6:68:73:06:5d:4d:18:90:
                    3d:d6:0a:22:9e:2f:b2:7a:c7:50:19:29:46:c3:13:
                    ab:f4:fc:36:d6:7c:25:cd:58:42:be:53:82:e9:e7:
                    11:f3:ad:73:c0:30:8d:48:84:5d:d7:15:70:00:e4:
                    a2:a4:6b:bb:71:c1:7f:4f:72:9d:6f:13:04:1f:8e:
                    82:a1:40:a7:b3:3f:d0:ae:27:e2:ff:cb:e5:24:8d:
                    6c:f0:ff:2a:37:ec:56:c6:8e:44:9b:86:54:8f:9f:
                    64:0f:60:73:b1:e2:e0:8f:d7:37:69:48:7d:63:0d:
                    ba:00:3f:07:08:45:77:cc:2c:19:2b:c6:f5:1a:18:
                    ac:5d:b9:5c:ae:8b:55:a3:17:a3:0b:77:de:4f:84:
                    70:39:c7:22:d0:7f:ca:ef:ec:f3:66:98:37:1d:3a:
                    90:ee:47:bc:b8:60:da:5d:c2:24:8e:05:b8:05:51:
                    f9:9b:f9:d5:dc:fc:fa:b3:e0:f6:71:13:38:db:ed:
                    1b:33:45:d9:d2:ba:72:7d:46:47:dd:fc:5d:8a:ff:
                    67:22:9b:8c:e1:7b:0d:63:84:a2:ae:09:01:cc:30:
                    d9:8e:d1:e3:13:b3:63:70:99:95:ab:8f:66:96:6a:
                    3f:a3
                Exponent: 65537 (0x10001)
        X509v3 extensions:
            X509v3 Basic Constraints: 
                CA:FALSE
            Netscape Comment: 
                OpenSSL Generated Certificate
            X509v3 Subject Key Identifier: 
                7A:D2:CB:EF:9F:F7:35:DF:BF:53:45:34:29:85:D3:A1:60:B3:8F:52
            X509v3 Authority Key Identifier: 
                keyid:C2:2B:39:8E:40:DA:8E:F5:A5:0B:89:E4:4A:BB:58:87:8B:64:8B:06

    Signature Algorithm: sha1WithRSAEncryption
        cf:dd:55:fc:93:51:1a:d7:cc:8e:e2:b0:19:f1:f9:c7:41:ad:
        d4:d7:78:4e:23:52:f5:b7:60:47:b0:d2:41:01:ca:33:6a:c0:
        04:c4:7c:f3:93:b4:0c:a6:5b:74:f8:a3:87:de:6c:db:b9:e7:
        17:95:04:ef:7b:e3:b4:28:c7:40:61:33:e7:13:f9:a8:80:75:
        89:77:39:57:ea:93:4e:2d:02:22:b3:bd:2b:7c:58:2b:82:21:
        3a:f4:db:56:87:65:14:8b:29:20:b8:7f:58:1a:97:35:ab:0b:
        a7:86:9c:f3:5b:ad:8b:65:b9:14:18:d9:11:a5:27:65:52:19:
        0b:40:e3:da:1f:8f:5c:d0:6f:c2:39:6a:eb:94:f0:57:61:ff:
        ed:54:3a:6f:8b:7c:24:85:c7:4f:47:36:b8:be:72:d9:df:da:
        b9:f6:b1:4a:7f:4c:86:77:7e:25:f0:da:7c:25:07:fb:b3:65:
        84:e5:cd:e0:a0:96:8d:13:03:7a:47:8a:4a:a5:90:c2:c7:bc:
        f1:7f:7d:c2:48:48:c8:00:d1:7e:68:f8:15:5c:af:8b:b8:f8:
        fe:30:21:03:97:fb:4d:3d:9c:dc:d9:83:3d:92:51:61:95:5e:
        56:50:2c:b8:be:ee:88:6a:55:ab:ad:d8:f0:fe:ee:66:2b:72:
        c9:bb:04:7a
-----BEGIN CERTIFICATE-----
MIIEFTCCAv2gAwIBAgIBATANBgkqhkiG9w0BAQUFADCBiDELMAkGA1UEBhMCU0Ux
DjAMBgNVBAgMBVNrYW5lMQ0wCwYDVQQHDARMdW5kMRAwDgYDVQQKDAdJbml0ZWNo
MQ8wDQYDVQQLDAZJVC1kZXAxFjAUBgNVBAMMDUJpbGwgTHVtYmVyZ2gxHzAdBgkq
hkiG9w0BCQEWEGJpbGxAaW5pdGVjaC5jb20wHhcNMTIwMTI1MTUxMzMzWhcNMTMw
MTI0MTUxMzMzWjCBlTELMAkGA1UEBhMCU0UxDjAMBgNVBAgMBVNrYW5lMQ0wCwYD
VQQHDARMdW5kMRUwEwYDVQQKDAxTdXBlckNvbWFwbnkxDzANBgNVBAsMBklULWRl
cDEZMBcGA1UEAwwQc3VwZXJjb21wYW55LmNvbTEkMCIGCSqGSIb3DQEJARYVaW5m
b0BzdXBlcmNvbXBhbnkuY29tMIIBIjANBgkqhkiG9w0BAQEFAAOCAQ8AMIIBCgKC
AQEA2wd2jyTNeqZOCgBpZI7vIxREmU6B5mhzBl1NGJA91goini+yesdQGSlGwxOr
9Pw21nwlzVhCvlOC6ecR861zwDCNSIRd1xVwAOSipGu7ccF/T3KdbxMEH46CoUCn
sz/Qrifi/8vlJI1s8P8qN+xWxo5Em4ZUj59kD2BzseLgj9c3aUh9Yw26AD8HCEV3
zCwZK8b1GhisXblcrotVoxejC3feT4RwOcci0H/K7+zzZpg3HTqQ7ke8uGDaXcIk
jgW4BVH5m/nV3Pz6s+D2cRM42+0bM0XZ0rpyfUZH3fxdiv9nIpuM4XsNY4SirgkB
zDDZjtHjE7NjcJmVq49mlmo/owIDAQABo3sweTAJBgNVHRMEAjAAMCwGCWCGSAGG
+EIBDQQfFh1PcGVuU1NMIEdlbmVyYXRlZCBDZXJ0aWZpY2F0ZTAdBgNVHQ4EFgQU
etLL75/3Nd+/U0U0KYXToWCzj1IwHwYDVR0jBBgwFoAUwis5jkDajvWlC4nkSrtY
h4tkiwYwDQYJKoZIhvcNAQEFBQADggEBAM/dVfyTURrXzI7isBnx+cdBrdTXeE4j
UvW3YEew0kEByjNqwATEfPOTtAymW3T4o4febNu55xeVBO9747Qox0BhM+cT+aiA
dYl3OVfqk04tAiKzvSt8WCuCITr021aHZRSLKSC4f1galzWrC6eGnPNbrYtluRQY
2RGlJ2VSGQtA49ofj1zQb8I5auuU8Fdh/+1UOm+LfCSFx09HNri+ctnf2rn2sUp/
TIZ3fiXw2nwlB/uzZYTlzeCglo0TA3pHikqlkMLHvPF/fcJISMgA0X5o+BVcr4u4
+P4wIQOX+009nNzZgz2SUWGVXlZQLLi+7ohqVaut2PD+7mYrcsm7BHo=
-----END CERTIFICATE-----
