Certificate:
    Data:
        Version: 3 (0x2)
        Serial Number: 2 (0x2)
        Signature Algorithm: sha1WithRSAEncryption
        Issuer: C=SE, ST=Skane, L=Lund, O=Initech, OU=IT-dep, CN=Bill Lumbergh/emailAddress=bill@initech.com
        Validity
            Not Before: Jan 25 15:14:31 2012 GMT
            Not After : Jan 24 15:14:31 2013 GMT
        Subject: C=SE, ST=Skane, L=Lund, O=LTH, OU=CS, CN=ada09ewe
        Subject Public Key Info:
            Public Key Algorithm: rsaEncryption
                Public-Key: (1024 bit)
                Modulus:
                    00:b2:eb:28:d8:ce:df:01:d7:0d:aa:f0:00:59:6d:
                    03:1f:43:31:5c:d2:33:a5:02:02:2d:9e:10:44:1a:
                    fd:5b:0d:29:83:87:ea:25:e9:b7:30:a2:64:91:91:
                    95:4c:1e:f4:af:65:7c:a2:58:37:b8:a0:e3:a2:34:
                    0e:50:f8:a9:65:29:c7:c0:fb:83:f5:4a:ce:51:4d:
                    fc:14:a4:35:66:35:16:36:a9:07:ec:c8:1d:51:1d:
                    69:47:9b:af:7e:fc:62:62:27:b7:31:68:d0:46:57:
                    40:e2:c8:70:7c:8f:15:1e:db:73:cd:7e:09:58:34:
                    8d:98:16:77:cc:2a:54:bd:87
                Exponent: 65537 (0x10001)
        X509v3 extensions:
            X509v3 Basic Constraints: 
                CA:FALSE
            Netscape Comment: 
                OpenSSL Generated Certificate
            X509v3 Subject Key Identifier: 
                AF:93:ED:04:33:75:4C:39:48:C8:2F:5F:C0:AA:72:3B:B4:47:60:B6
            X509v3 Authority Key Identifier: 
                keyid:C2:2B:39:8E:40:DA:8E:F5:A5:0B:89:E4:4A:BB:58:87:8B:64:8B:06

    Signature Algorithm: sha1WithRSAEncryption
        2e:12:4c:88:36:8f:01:43:83:b7:de:94:ec:69:8e:5f:d5:66:
        0a:f6:79:1b:2b:94:07:87:f6:9b:37:85:aa:ae:11:a8:22:90:
        a4:dc:92:6e:1b:99:c0:29:bb:56:8c:70:f8:2d:c1:8e:af:ab:
        ce:59:f3:3d:16:56:a0:93:76:0a:ef:e2:82:4b:4b:f7:64:3b:
        98:9f:f9:c1:dd:dd:28:6b:87:b0:0b:21:06:35:85:c4:22:d8:
        e0:55:0e:57:6f:89:0d:f1:90:25:d4:07:bb:a2:cd:c5:cd:00:
        c0:fd:70:b6:0f:27:64:81:b0:c9:00:65:fd:fb:98:eb:ea:d7:
        d0:87:6a:89:93:7e:5e:47:56:a1:b2:bf:a2:9c:f7:0f:65:34:
        24:0e:7d:3d:1a:c3:70:01:a8:44:60:26:42:83:f7:90:21:81:
        00:2b:e2:96:9c:95:e3:3c:12:4c:0b:5f:7e:23:48:a1:25:eb:
        fa:fd:1b:34:14:70:df:b9:d0:1a:8c:d3:af:14:5c:7d:3c:42:
        0d:b6:af:44:0a:43:5d:6e:4a:1f:d1:03:86:bf:81:54:5b:e9:
        4a:e1:a5:72:93:f1:bf:d0:24:50:40:77:9b:d5:1c:81:ee:e3:
        f1:b8:ab:e5:51:51:d2:2c:a8:a3:70:ee:0b:b9:f2:64:68:38:
        23:29:61:ce
-----BEGIN CERTIFICATE-----
MIIDVTCCAj2gAwIBAgIBAjANBgkqhkiG9w0BAQUFADCBiDELMAkGA1UEBhMCU0Ux
DjAMBgNVBAgMBVNrYW5lMQ0wCwYDVQQHDARMdW5kMRAwDgYDVQQKDAdJbml0ZWNo
MQ8wDQYDVQQLDAZJVC1kZXAxFjAUBgNVBAMMDUJpbGwgTHVtYmVyZ2gxHzAdBgkq
hkiG9w0BCQEWEGJpbGxAaW5pdGVjaC5jb20wHhcNMTIwMTI1MTUxNDMxWhcNMTMw
MTI0MTUxNDMxWjBaMQswCQYDVQQGEwJTRTEOMAwGA1UECBMFU2thbmUxDTALBgNV
BAcTBEx1bmQxDDAKBgNVBAoTA0xUSDELMAkGA1UECxMCQ1MxETAPBgNVBAMTCGFk
YTA5ZXdlMIGfMA0GCSqGSIb3DQEBAQUAA4GNADCBiQKBgQCy6yjYzt8B1w2q8ABZ
bQMfQzFc0jOlAgItnhBEGv1bDSmDh+ol6bcwomSRkZVMHvSvZXyiWDe4oOOiNA5Q
+KllKcfA+4P1Ss5RTfwUpDVmNRY2qQfsyB1RHWlHm69+/GJiJ7cxaNBGV0DiyHB8
jxUe23PNfglYNI2YFnfMKlS9hwIDAQABo3sweTAJBgNVHRMEAjAAMCwGCWCGSAGG
+EIBDQQfFh1PcGVuU1NMIEdlbmVyYXRlZCBDZXJ0aWZpY2F0ZTAdBgNVHQ4EFgQU
r5PtBDN1TDlIyC9fwKpyO7RHYLYwHwYDVR0jBBgwFoAUwis5jkDajvWlC4nkSrtY
h4tkiwYwDQYJKoZIhvcNAQEFBQADggEBAC4STIg2jwFDg7felOxpjl/VZgr2eRsr
lAeH9ps3haquEagikKTckm4bmcApu1aMcPgtwY6vq85Z8z0WVqCTdgrv4oJLS/dk
O5if+cHd3Shrh7ALIQY1hcQi2OBVDldviQ3xkCXUB7uizcXNAMD9cLYPJ2SBsMkA
Zf37mOvq19CHaomTfl5HVqGyv6Kc9w9lNCQOfT0aw3ABqERgJkKD95AhgQAr4pac
leM8EkwLX34jSKEl6/r9GzQUcN+50BqM068UXH08Qg22r0QKQ11uSh/RA4a/gVRb
6UrhpXKT8b/QJFBAd5vVHIHu4/G4q+VRUdIsqKNw7gu58mRoOCMpYc4=
-----END CERTIFICATE-----
